target datalayout = "e-m:e-p270:32:32-p271:32:32-p272:64:64-i64:64-i128:128-f80:128-n8:16:32:64-S128"
target triple = "x86_64-pc-linux-gnu"

%"struct.ue2::(anonymous namespace)::raw_gough_report_info_impl" = type { %"struct.ue2::raw_report_info", %"class.std::vector.632" }
%"struct.ue2::raw_report_info" = type { ptr }
%"class.std::vector.632" = type { %"struct.std::_Vector_base.633" }
%"struct.std::_Vector_base.633" = type { %"struct.std::_Vector_base<ue2::(anonymous namespace)::raw_gough_report_list, std::allocator<ue2::(anonymous namespace)::raw_gough_report_list>>::_Vector_impl" }
%"struct.std::_Vector_base<ue2::(anonymous namespace)::raw_gough_report_list, std::allocator<ue2::(anonymous namespace)::raw_gough_report_list>>::_Vector_impl" = type { %"struct.std::_Vector_base<ue2::(anonymous namespace)::raw_gough_report_list, std::allocator<ue2::(anonymous namespace)::raw_gough_report_list>>::_Vector_impl_data" }
%"struct.std::_Vector_base<ue2::(anonymous namespace)::raw_gough_report_list, std::allocator<ue2::(anonymous namespace)::raw_gough_report_list>>::_Vector_impl_data" = type { ptr, ptr, ptr }

; Function Attrs: mustprogress nounwind uwtable
define internal noundef i64 @_ZNKSt6vectorIN3ue212_GLOBAL__N_121raw_gough_report_listESaIS2_EE4sizeEv(ptr noundef nonnull align 8 dereferenceable(24) %0) #1 align 2 {
  %2 = alloca ptr, align 8
  store ptr %0, ptr %2, align 8
  %3 = load ptr, ptr %2, align 8
  %4 = getelementptr inbounds nuw %"struct.std::_Vector_base.633", ptr %3, i32 0, i32 0
  %5 = getelementptr inbounds nuw %"struct.std::_Vector_base<ue2::(anonymous namespace)::raw_gough_report_list, std::allocator<ue2::(anonymous namespace)::raw_gough_report_list>>::_Vector_impl_data", ptr %4, i32 0, i32 1
  %6 = load ptr, ptr %5, align 8
  %7 = getelementptr inbounds nuw %"struct.std::_Vector_base.633", ptr %3, i32 0, i32 0
  %8 = getelementptr inbounds nuw %"struct.std::_Vector_base<ue2::(anonymous namespace)::raw_gough_report_list, std::allocator<ue2::(anonymous namespace)::raw_gough_report_list>>::_Vector_impl_data", ptr %7, i32 0, i32 0
  %9 = load ptr, ptr %8, align 8
  %10 = ptrtoint ptr %6 to i64
  %11 = ptrtoint ptr %9 to i64
  %12 = sub i64 %10, %11
  %13 = sdiv exact i64 %12, 48
  ret i64 %13
}

; Function Attrs: mustprogress nounwind uwtable
define internal noundef i64 @_ZNK3ue212_GLOBAL__N_126raw_gough_report_info_impl4sizeEv(ptr noundef nonnull align 8 dereferenceable(32) %0) unnamed_addr #1 align 2 {
  %2 = alloca ptr, align 8
  store ptr %0, ptr %2, align 8
  %3 = load ptr, ptr %2, align 8
  %4 = getelementptr inbounds nuw %"struct.ue2::(anonymous namespace)::raw_gough_report_info_impl", ptr %3, i32 0, i32 1
  %5 = call noundef i64 @_ZNKSt6vectorIN3ue212_GLOBAL__N_121raw_gough_report_listESaIS2_EE4sizeEv(ptr noundef nonnull align 8 dereferenceable(24) %4) #25
  ret i64 %5
}